target datalayout = "e-m:e-p270:32:32-p271:32:32-p272:64:64-i64:64-i128:128-f80:128-n8:16:32:64-S128"
target triple = "x86_64-unknown-linux-gnu"

%"class.proxygen::huffman::HuffTree" = type { i32, ptr, ptr, [46 x %"struct.proxygen::huffman::SuperHuffNode"] }
%"struct.proxygen::huffman::SuperHuffNode" = type { [256 x %"struct.proxygen::huffman::HuffNode"] }
%"struct.proxygen::huffman::HuffNode" = type { %union.anon, %struct.anon }
%union.anon = type { i8 }
%struct.anon = type { i8 }

; Function Attrs: mustprogress nounwind uwtable
define linkonce_odr noundef zeroext i1 @_ZNK8proxygen7huffman8HuffNode6isLeafEv(ptr noundef nonnull align 1 dereferenceable(2) %this) #1 comdat align 2 {
entry:
  %this.addr = alloca ptr, align 8
  store ptr %this, ptr %this.addr, align 8
  %this1 = load ptr, ptr %this.addr, align 8
  %metadata = getelementptr inbounds %"struct.proxygen::huffman::HuffNode", ptr %this1, i32 0, i32 1
  %bf.load = load i8, ptr %metadata, align 1
  %bf.lshr = lshr i8 %bf.load, 4
  %bf.clear = and i8 %bf.lshr, 1
  %bf.cast = trunc i8 %bf.clear to i1
  %lnot = xor i1 %bf.cast, true
  ret i1 %lnot
}

; Function Attrs: mustprogress uwtable
define void @_ZN8proxygen7huffman8HuffTree6insertEjhh(ptr noundef nonnull align 8 dereferenceable(23576) %this, i32 noundef %code, i8 noundef zeroext %bits, i8 noundef zeroext %ch) #0 align 2 {
entry:
  %this.addr = alloca ptr, align 8
  %code.addr = alloca i32, align 4
  %bits.addr = alloca i8, align 1
  %ch.addr = alloca i8, align 1
  %snode = alloca ptr, align 8
  %mask = alloca i32, align 4
  %x = alloca i32, align 4
  %node = alloca ptr, align 8
  store ptr %this, ptr %this.addr, align 8
  store i32 %code, ptr %code.addr, align 4
  store i8 %bits, ptr %bits.addr, align 1
  store i8 %ch, ptr %ch.addr, align 1
  %this1 = load ptr, ptr %this.addr, align 8
  %table_ = getelementptr inbounds %"class.proxygen::huffman::HuffTree", ptr %this1, i32 0, i32 3
  %arrayidx = getelementptr inbounds [46 x %"struct.proxygen::huffman::SuperHuffNode"], ptr %table_, i64 0, i64 0
  store ptr %arrayidx, ptr %snode, align 8
  br label %while.cond

while.cond:                                       ; preds = %if.end, %entry
  %0 = load i8, ptr %bits.addr, align 1
  %conv = zext i8 %0 to i32
  %cmp = icmp sgt i32 %conv, 8
  br i1 %cmp, label %while.body, label %while.end

while.body:                                       ; preds = %while.cond
  %1 = load i8, ptr %bits.addr, align 1
  %conv2 = zext i8 %1 to i32
  %sub = sub nsw i32 %conv2, 8
  %shl = shl i32 255, %sub
  store i32 %shl, ptr %mask, align 4
  %2 = load i32, ptr %code.addr, align 4
  %3 = load i32, ptr %mask, align 4
  %and = and i32 %2, %3
  %4 = load i8, ptr %bits.addr, align 1
  %conv3 = zext i8 %4 to i32
  %sub4 = sub nsw i32 %conv3, 8
  %shr = lshr i32 %and, %sub4
  store i32 %shr, ptr %x, align 4
  %5 = load ptr, ptr %snode, align 8
  %index = getelementptr inbounds %"struct.proxygen::huffman::SuperHuffNode", ptr %5, i32 0, i32 0
  %6 = load i32, ptr %x, align 4
  %idxprom = zext i32 %6 to i64
  %arrayidx5 = getelementptr inbounds [256 x %"struct.proxygen::huffman::HuffNode"], ptr %index, i64 0, i64 %idxprom
  %call = call noundef zeroext i1 @_ZNK8proxygen7huffman8HuffNode6isLeafEv(ptr noundef nonnull align 1 dereferenceable(2) %arrayidx5)
  br i1 %call, label %if.then, label %if.end

if.then:                                          ; preds = %while.body
  %nodes_ = getelementptr inbounds %"class.proxygen::huffman::HuffTree", ptr %this1, i32 0, i32 0
  %7 = load i32, ptr %nodes_, align 8
  %inc = add i32 %7, 1
  store i32 %inc, ptr %nodes_, align 8
  %8 = load ptr, ptr %snode, align 8
  %index6 = getelementptr inbounds %"struct.proxygen::huffman::SuperHuffNode", ptr %8, i32 0, i32 0
  %9 = load i32, ptr %x, align 4
  %idxprom7 = zext i32 %9 to i64
  %arrayidx8 = getelementptr inbounds [256 x %"struct.proxygen::huffman::HuffNode"], ptr %index6, i64 0, i64 %idxprom7
  store ptr %arrayidx8, ptr %node, align 8
  %10 = load ptr, ptr %node, align 8
  %metadata = getelementptr inbounds %"struct.proxygen::huffman::HuffNode", ptr %10, i32 0, i32 1
  %bf.load = load i8, ptr %metadata, align 1
  %bf.clear = and i8 %bf.load, -17
  %bf.set = or i8 %bf.clear, 16
  store i8 %bf.set, ptr %metadata, align 1
  %nodes_9 = getelementptr inbounds %"class.proxygen::huffman::HuffTree", ptr %this1, i32 0, i32 0
  %11 = load i32, ptr %nodes_9, align 8
  %conv10 = trunc i32 %11 to i8
  %12 = load ptr, ptr %node, align 8
  %data = getelementptr inbounds %"struct.proxygen::huffman::HuffNode", ptr %12, i32 0, i32 0
  store i8 %conv10, ptr %data, align 1
  br label %if.end

if.end:                                           ; preds = %if.then, %while.body
  %table_11 = getelementptr inbounds %"class.proxygen::huffman::HuffTree", ptr %this1, i32 0, i32 3
  %13 = load ptr, ptr %snode, align 8
  %index12 = getelementptr inbounds %"struct.proxygen::huffman::SuperHuffNode", ptr %13, i32 0, i32 0
  %14 = load i32, ptr %x, align 4
  %idxprom13 = zext i32 %14 to i64
  %arrayidx14 = getelementptr inbounds [256 x %"struct.proxygen::huffman::HuffNode"], ptr %index12, i64 0, i64 %idxprom13
  %data15 = getelementptr inbounds %"struct.proxygen::huffman::HuffNode", ptr %arrayidx14, i32 0, i32 0
  %15 = load i8, ptr %data15, align 1
  %idxprom16 = zext i8 %15 to i64
  %arrayidx17 = getelementptr inbounds [46 x %"struct.proxygen::huffman::SuperHuffNode"], ptr %table_11, i64 0, i64 %idxprom16
  store ptr %arrayidx17, ptr %snode, align 8
  %16 = load i8, ptr %bits.addr, align 1
  %conv18 = zext i8 %16 to i32
  %sub19 = sub nsw i32 %conv18, 8
  %conv20 = trunc i32 %sub19 to i8
  store i8 %conv20, ptr %bits.addr, align 1
  %17 = load i32, ptr %code.addr, align 4
  %18 = load i32, ptr %mask, align 4
  %not = xor i32 %18, -1
  %and21 = and i32 %17, %not
  store i32 %and21, ptr %code.addr, align 4
  br label %while.cond, !llvm.loop !7

while.end:                                        ; preds = %while.cond
  %19 = load ptr, ptr %snode, align 8
  %20 = load i32, ptr %code.addr, align 4
  %21 = load i8, ptr %bits.addr, align 1
  %22 = load i8, ptr %ch.addr, align 1
  %23 = load i8, ptr %bits.addr, align 1
  call void @_ZN8proxygen7huffman8HuffTree9fillIndexERNS0_13SuperHuffNodeEjhhh(ptr noundef nonnull align 8 dereferenceable(23576) %this1, ptr noundef nonnull align 1 dereferenceable(512) %19, i32 noundef %20, i8 noundef zeroext %21, i8 noundef zeroext %22, i8 noundef zeroext %23)
  ret void
}