; Function Attrs: mustprogress nofree nosync nounwind memory(readwrite, inaccessiblemem: none) uwtable
define void @_ZN8proxygen7huffman8HuffTree6insertEjhh(ptr nocapture noundef nonnull align 8 dereferenceable(23576) %this, i32 noundef %code, i8 noundef zeroext %bits, i8 noundef zeroext %ch) local_unnamed_addr #0 align 2 {
entry:
  %table_ = getelementptr inbounds i8, ptr %this, i64 24
  %cmp15 = icmp ugt i8 %bits, 8
  br i1 %cmp15, label %while.body, label %while.end

while.body:                                       ; preds = %entry, %if.end
  %code.addr.018 = phi i32 [ %and21, %if.end ], [ %code, %entry ]
  %bits.addr.017 = phi i8 [ %conv20, %if.end ], [ %bits, %entry ]
  %snode.016 = phi ptr [ %arrayidx17, %if.end ], [ %table_, %entry ]
  %conv = zext i8 %bits.addr.017 to i32
  %sub = add nsw i32 %conv, -8
  %shl = shl i32 255, %sub
  %and = and i32 %shl, %code.addr.018
  %shr = lshr i32 %and, %sub
  %idxprom = zext nneg i32 %shr to i64
  %arrayidx5 = getelementptr inbounds [256 x %"struct.proxygen::huffman::HuffNode"], ptr %snode.016, i64 0, i64 %idxprom
  %metadata.i = getelementptr inbounds i8, ptr %arrayidx5, i64 1
  %bf.load.i = load i8, ptr %metadata.i, align 1
  %0 = and i8 %bf.load.i, 16
  %bf.cast.not.i = icmp eq i8 %0, 0
  br i1 %bf.cast.not.i, label %if.then, label %while.body.if.end_crit_edge

while.body.if.end_crit_edge:                      ; preds = %while.body
  %.pre = load i8, ptr %arrayidx5, align 1
  br label %if.end

if.then:                                          ; preds = %while.body
  %1 = load i32, ptr %this, align 8
  %inc = add i32 %1, 1
  store i32 %inc, ptr %this, align 8
  %bf.load = load i8, ptr %metadata.i, align 1
  %bf.set = or i8 %bf.load, 16
  store i8 %bf.set, ptr %metadata.i, align 1
  %2 = load i32, ptr %this, align 8
  %conv10 = trunc i32 %2 to i8
  store i8 %conv10, ptr %arrayidx5, align 1
  br label %if.end

if.end:                                           ; preds = %while.body.if.end_crit_edge, %if.then
  %3 = phi i8 [ %.pre, %while.body.if.end_crit_edge ], [ %conv10, %if.then ]
  %idxprom16 = zext i8 %3 to i64
  %arrayidx17 = getelementptr inbounds [46 x %"struct.proxygen::huffman::SuperHuffNode"], ptr %table_, i64 0, i64 %idxprom16
  %conv20 = trunc i32 %sub to i8
  %not = xor i32 %shl, -1
  %and21 = and i32 %code.addr.018, %not
  %cmp = icmp ugt i8 %conv20, 8
  br i1 %cmp, label %while.body, label %while.end, !llvm.loop !4

while.end:                                        ; preds = %if.end, %entry
  %snode.0.lcssa = phi ptr [ %table_, %entry ], [ %arrayidx17, %if.end ]
  %bits.addr.0.lcssa = phi i8 [ %bits, %entry ], [ %conv20, %if.end ]
  %code.addr.0.lcssa = phi i32 [ %code, %entry ], [ %and21, %if.end ]
  tail call void @_ZN8proxygen7huffman8HuffTree9fillIndexERNS0_13SuperHuffNodeEjhhh(ptr noundef nonnull align 8 dereferenceable(23576) %this, ptr noundef nonnull align 1 dereferenceable(512) %snode.0.lcssa, i32 noundef %code.addr.0.lcssa, i8 noundef zeroext %bits.addr.0.lcssa, i8 noundef zeroext %ch, i8 noundef zeroext %bits.addr.0.lcssa)
  ret void
}